; Function Attrs: mustprogress uwtable
define void @_ZNK6casadi2MX6get_nzERS0_bRKS0_(ptr noundef nonnull align 8 dereferenceable(8) %0, ptr noundef nonnull align 8 dereferenceable(8) %1, i1 noundef zeroext %2, ptr noundef nonnull align 8 dereferenceable(8) %3) local_unnamed_addr #3 align 2 personality ptr @__gxx_personality_v0 {
  %5 = alloca %"class.casadi::MX", align 8
  %6 = alloca %"class.casadi::MX", align 8
  %7 = alloca %"class.casadi::MX", align 8
  %8 = tail call noundef ptr @_ZNK6casadi12SharedObjectptEv(ptr noundef nonnull align 8 dereferenceable(8) %0)
  br i1 %2, label %9, label %10

9:                                                ; preds = %4
  call void @_ZN6casadi2MXC1Ed(ptr noundef nonnull align 8 dereferenceable(8) %7, double noundef 1.000000e+00)
  invoke void @_ZN6casadi2MX6binaryExRKS0_S2_(ptr dead_on_unwind nonnull writable sret(%"class.casadi::MX") align 8 %6, i64 noundef 2, ptr noundef nonnull align 8 dereferenceable(8) %3, ptr noundef nonnull align 8 dereferenceable(8) %7)
          to label %_ZN6casadimiERKNS_2MXES2_.exit unwind label %18

10:                                               ; preds = %4
  invoke void @_ZN6casadi12SharedObjectC2ERKS0_(ptr noundef nonnull align 8 dereferenceable(8) %6, ptr noundef nonnull align 8 dereferenceable(8) %3)
          to label %_ZN6casadimiERKNS_2MXES2_.exit unwind label %18

_ZN6casadimiERKNS_2MXES2_.exit:                   ; preds = %10, %9
  %11 = load ptr, ptr %8, align 8
  %12 = getelementptr inbounds i8, ptr %11, i64 624
  %13 = load ptr, ptr %12, align 8
  invoke void %13(ptr dead_on_unwind nonnull writable sret(%"class.casadi::MX") align 8 %5, ptr noundef nonnull align 8 dereferenceable(64) %8, ptr noundef nonnull align 8 dereferenceable(8) %6)
          to label %14 unwind label %20

14:                                               ; preds = %_ZN6casadimiERKNS_2MXES2_.exit
  %15 = invoke noundef nonnull align 8 dereferenceable(8) ptr @_ZN6casadi12SharedObjectaSERKS0_(ptr noundef nonnull align 8 dereferenceable(8) %1, ptr noundef nonnull align 8 dereferenceable(8) %5)
          to label %_ZN6casadi2MXaSERKS0_.exit unwind label %22

_ZN6casadi2MXaSERKS0_.exit:                       ; preds = %14
  call void @_ZN6casadi2MXD1Ev(ptr noundef nonnull align 8 dereferenceable(8) %5) #27
  call void @_ZN6casadi2MXD1Ev(ptr noundef nonnull align 8 dereferenceable(8) %6) #27
  br i1 %2, label %16, label %17

16:                                               ; preds = %_ZN6casadi2MXaSERKS0_.exit
  call void @_ZN6casadi2MXD1Ev(ptr noundef nonnull align 8 dereferenceable(8) %7) #27
  br label %17

17:                                               ; preds = %16, %_ZN6casadi2MXaSERKS0_.exit
  ret void

18:                                               ; preds = %10, %9
  %19 = landingpad { ptr, i32 }
          cleanup
  br label %25

20:                                               ; preds = %_ZN6casadimiERKNS_2MXES2_.exit
  %21 = landingpad { ptr, i32 }
          cleanup
  br label %24

22:                                               ; preds = %14
  %23 = landingpad { ptr, i32 }
          cleanup
  call void @_ZN6casadi2MXD1Ev(ptr noundef nonnull align 8 dereferenceable(8) %5) #27
  br label %24

24:                                               ; preds = %22, %20
  %.pn = phi { ptr, i32 } [ %23, %22 ], [ %21, %20 ]
  call void @_ZN6casadi2MXD1Ev(ptr noundef nonnull align 8 dereferenceable(8) %6) #27
  br label %25

25:                                               ; preds = %24, %18
  %.pn.pn = phi { ptr, i32 } [ %.pn, %24 ], [ %19, %18 ]
  br i1 %2, label %26, label %27

26:                                               ; preds = %25
  call void @_ZN6casadi2MXD1Ev(ptr noundef nonnull align 8 dereferenceable(8) %7) #27
  br label %27

27:                                               ; preds = %25, %26
  resume { ptr, i32 } %.pn.pn
}